target datalayout = "e-m:e-p270:32:32-p271:32:32-p272:64:64-i64:64-i128:128-f80:128-n8:16:32:64-S128"
target triple = "x86_64-pc-linux-gnu"

%"class.VrmlTranslator::Scanner" = type { ptr, ptr, ptr, ptr, i8, i32, i32, i32, i32, %"class.VrmlTranslator::StartStates", %"class.VrmlTranslator::KeywordMap", ptr, ptr, i32, i32, ptr, ptr, i32, i32, i32, i32, i32, ptr }
%"class.VrmlTranslator::StartStates" = type { ptr, ptr }
%"class.VrmlTranslator::KeywordMap" = type { ptr, ptr }

; Function Attrs: mustprogress uwtable
define void @_ZN14VrmlTranslator7Scanner6NextChEv(ptr noundef nonnull align 8 dereferenceable(160) %0) #1 align 2 {
  %2 = alloca ptr, align 8
  store ptr %0, ptr %2, align 8
  %3 = load ptr, ptr %2, align 8
  %4 = getelementptr inbounds %"class.VrmlTranslator::Scanner", ptr %3, i32 0, i32 21
  %5 = load i32, ptr %4, align 8
  %6 = icmp sgt i32 %5, 0
  br i1 %6, label %7, label %15

7:                                                ; preds = %1
  %8 = getelementptr inbounds %"class.VrmlTranslator::Scanner", ptr %3, i32 0, i32 4
  %9 = load i8, ptr %8, align 8
  %10 = zext i8 %9 to i32
  %11 = getelementptr inbounds %"class.VrmlTranslator::Scanner", ptr %3, i32 0, i32 17
  store i32 %10, ptr %11, align 8
  %12 = getelementptr inbounds %"class.VrmlTranslator::Scanner", ptr %3, i32 0, i32 21
  %13 = load i32, ptr %12, align 8
  %14 = add nsw i32 %13, -1
  store i32 %14, ptr %12, align 8
  br label %62

15:                                               ; preds = %1
  %16 = getelementptr inbounds %"class.VrmlTranslator::Scanner", ptr %3, i32 0, i32 22
  %17 = load ptr, ptr %16, align 8
  %18 = load ptr, ptr %17, align 8
  %19 = getelementptr inbounds ptr, ptr %18, i64 6
  %20 = load ptr, ptr %19, align 8
  %21 = call noundef i32 %20(ptr noundef nonnull align 8 dereferenceable(49) %17)
  %22 = getelementptr inbounds %"class.VrmlTranslator::Scanner", ptr %3, i32 0, i32 18
  store i32 %21, ptr %22, align 4
  %23 = getelementptr inbounds %"class.VrmlTranslator::Scanner", ptr %3, i32 0, i32 22
  %24 = load ptr, ptr %23, align 8
  %25 = load ptr, ptr %24, align 8
  %26 = getelementptr inbounds ptr, ptr %25, i64 3
  %27 = load ptr, ptr %26, align 8
  %28 = call noundef i32 %27(ptr noundef nonnull align 8 dereferenceable(49) %24)
  %29 = getelementptr inbounds %"class.VrmlTranslator::Scanner", ptr %3, i32 0, i32 17
  store i32 %28, ptr %29, align 8
  %30 = getelementptr inbounds %"class.VrmlTranslator::Scanner", ptr %3, i32 0, i32 20
  %31 = load i32, ptr %30, align 4
  %32 = add nsw i32 %31, 1
  store i32 %32, ptr %30, align 4
  %33 = getelementptr inbounds %"class.VrmlTranslator::Scanner", ptr %3, i32 0, i32 17
  %34 = load i32, ptr %33, align 8
  %35 = icmp eq i32 %34, 13
  br i1 %35, label %36, label %49

36:                                               ; preds = %15
  %37 = getelementptr inbounds %"class.VrmlTranslator::Scanner", ptr %3, i32 0, i32 22
  %38 = load ptr, ptr %37, align 8
  %39 = load ptr, ptr %38, align 8
  %40 = getelementptr inbounds ptr, ptr %39, i64 4
  %41 = load ptr, ptr %40, align 8
  %42 = call noundef i32 %41(ptr noundef nonnull align 8 dereferenceable(49) %38)
  %43 = icmp ne i32 %42, 10
  br i1 %43, label %44, label %49

44:                                               ; preds = %36
  %45 = getelementptr inbounds %"class.VrmlTranslator::Scanner", ptr %3, i32 0, i32 4
  %46 = load i8, ptr %45, align 8
  %47 = zext i8 %46 to i32
  %48 = getelementptr inbounds %"class.VrmlTranslator::Scanner", ptr %3, i32 0, i32 17
  store i32 %47, ptr %48, align 8
  br label %49

49:                                               ; preds = %44, %36, %15
  %50 = getelementptr inbounds %"class.VrmlTranslator::Scanner", ptr %3, i32 0, i32 17
  %51 = load i32, ptr %50, align 8
  %52 = getelementptr inbounds %"class.VrmlTranslator::Scanner", ptr %3, i32 0, i32 4
  %53 = load i8, ptr %52, align 8
  %54 = zext i8 %53 to i32
  %55 = icmp eq i32 %51, %54
  br i1 %55, label %56, label %61

56:                                               ; preds = %49
  %57 = getelementptr inbounds %"class.VrmlTranslator::Scanner", ptr %3, i32 0, i32 19
  %58 = load i32, ptr %57, align 8
  %59 = add nsw i32 %58, 1
  store i32 %59, ptr %57, align 8
  %60 = getelementptr inbounds %"class.VrmlTranslator::Scanner", ptr %3, i32 0, i32 20
  store i32 0, ptr %60, align 4
  br label %61

61:                                               ; preds = %56, %49
  br label %62

62:                                               ; preds = %61, %7
  ret void
}

; Function Attrs: mustprogress uwtable
define void @_ZN14VrmlTranslator7Scanner5AddChEv(ptr noundef nonnull align 8 dereferenceable(160) %0) #1 align 2 {
  %2 = alloca ptr, align 8
  %3 = alloca ptr, align 8
  store ptr %0, ptr %2, align 8
  %4 = load ptr, ptr %2, align 8
  %5 = getelementptr inbounds %"class.VrmlTranslator::Scanner", ptr %4, i32 0, i32 14
  %6 = load i32, ptr %5, align 4
  %7 = getelementptr inbounds %"class.VrmlTranslator::Scanner", ptr %4, i32 0, i32 13
  %8 = load i32, ptr %7, align 8
  %9 = icmp sge i32 %6, %8
  br i1 %9, label %10, label %36

10:                                               ; preds = %1
  %11 = getelementptr inbounds %"class.VrmlTranslator::Scanner", ptr %4, i32 0, i32 13
  %12 = load i32, ptr %11, align 8
  %13 = mul nsw i32 %12, 2
  store i32 %13, ptr %11, align 8
  %14 = getelementptr inbounds %"class.VrmlTranslator::Scanner", ptr %4, i32 0, i32 13
  %15 = load i32, ptr %14, align 8
  %16 = sext i32 %15 to i64
  %17 = call { i64, i1 } @llvm.umul.with.overflow.i64(i64 %16, i64 4)
  %18 = extractvalue { i64, i1 } %17, 1
  %19 = extractvalue { i64, i1 } %17, 0
  %20 = select i1 %18, i64 -1, i64 %19
  %21 = call noalias noundef nonnull ptr @_Znam(i64 noundef %20) #14
  store ptr %21, ptr %3, align 8
  %22 = load ptr, ptr %3, align 8
  %23 = getelementptr inbounds %"class.VrmlTranslator::Scanner", ptr %4, i32 0, i32 12
  %24 = load ptr, ptr %23, align 8
  %25 = getelementptr inbounds %"class.VrmlTranslator::Scanner", ptr %4, i32 0, i32 14
  %26 = load i32, ptr %25, align 4
  %27 = sext i32 %26 to i64
  %28 = mul i64 %27, 4
  call void @llvm.memcpy.p0.p0.i64(ptr align 4 %22, ptr align 4 %24, i64 %28, i1 false)
  %29 = getelementptr inbounds %"class.VrmlTranslator::Scanner", ptr %4, i32 0, i32 12
  %30 = load ptr, ptr %29, align 8
  %31 = icmp eq ptr %30, null
  br i1 %31, label %33, label %32

32:                                               ; preds = %10
  call void @_ZdaPv(ptr noundef %30) #13
  br label %33

33:                                               ; preds = %32, %10
  %34 = load ptr, ptr %3, align 8
  %35 = getelementptr inbounds %"class.VrmlTranslator::Scanner", ptr %4, i32 0, i32 12
  store ptr %34, ptr %35, align 8
  br label %36

36:                                               ; preds = %33, %1
  %37 = getelementptr inbounds %"class.VrmlTranslator::Scanner", ptr %4, i32 0, i32 17
  %38 = load i32, ptr %37, align 8
  %39 = getelementptr inbounds %"class.VrmlTranslator::Scanner", ptr %4, i32 0, i32 12
  %40 = load ptr, ptr %39, align 8
  %41 = getelementptr inbounds %"class.VrmlTranslator::Scanner", ptr %4, i32 0, i32 14
  %42 = load i32, ptr %41, align 4
  %43 = add nsw i32 %42, 1
  store i32 %43, ptr %41, align 4
  %44 = sext i32 %42 to i64
  %45 = getelementptr inbounds i32, ptr %40, i64 %44
  store i32 %38, ptr %45, align 4
  call void @_ZN14VrmlTranslator7Scanner6NextChEv(ptr noundef nonnull align 8 dereferenceable(160) %4)
  ret void
}