; Function Attrs: mustprogress uwtable
define void @_ZN14VrmlTranslator7Scanner5AddChEv(ptr nocapture noundef nonnull align 8 dereferenceable(160) %0) local_unnamed_addr #2 align 2 {
  %2 = getelementptr inbounds i8, ptr %0, i64 108
  %3 = load i32, ptr %2, align 4
  %4 = getelementptr inbounds i8, ptr %0, i64 104
  %5 = load i32, ptr %4, align 8
  %.not = icmp slt i32 %3, %5
  br i1 %.not, label %._crit_edge, label %6

._crit_edge:                                      ; preds = %1
  %.phi.trans.insert = getelementptr inbounds i8, ptr %0, i64 96
  %.pre = load ptr, ptr %.phi.trans.insert, align 8
  br label %20

6:                                                ; preds = %1
  %7 = shl nsw i32 %5, 1
  store i32 %7, ptr %4, align 8
  %8 = sext i32 %7 to i64
  %9 = icmp slt i32 %5, 0
  %10 = shl nsw i64 %8, 2
  %11 = select i1 %9, i64 -1, i64 %10
  %12 = tail call noalias noundef nonnull ptr @_Znam(i64 noundef %11) #21
  %13 = getelementptr inbounds i8, ptr %0, i64 96
  %14 = load ptr, ptr %13, align 8
  %15 = sext i32 %3 to i64
  %16 = shl nsw i64 %15, 2
  tail call void @llvm.memcpy.p0.p0.i64(ptr nonnull align 4 %12, ptr align 4 %14, i64 %16, i1 false)
  %17 = icmp eq ptr %14, null
  br i1 %17, label %19, label %18

18:                                               ; preds = %6
  tail call void @_ZdaPv(ptr noundef nonnull %14) #20
  %.pre4.pre = load i32, ptr %2, align 4
  br label %19

19:                                               ; preds = %18, %6
  %.pre4 = phi i32 [ %.pre4.pre, %18 ], [ %3, %6 ]
  store ptr %12, ptr %13, align 8
  br label %20

20:                                               ; preds = %._crit_edge, %19
  %21 = phi i32 [ %3, %._crit_edge ], [ %.pre4, %19 ]
  %22 = phi ptr [ %.pre, %._crit_edge ], [ %12, %19 ]
  %23 = getelementptr inbounds i8, ptr %0, i64 128
  %24 = load i32, ptr %23, align 8
  %25 = add nsw i32 %21, 1
  store i32 %25, ptr %2, align 4
  %26 = sext i32 %21 to i64
  %27 = getelementptr inbounds i32, ptr %22, i64 %26
  store i32 %24, ptr %27, align 4
  %28 = getelementptr inbounds i8, ptr %0, i64 144
  %29 = load i32, ptr %28, align 8
  %30 = icmp sgt i32 %29, 0
  br i1 %30, label %31, label %36

31:                                               ; preds = %20
  %32 = getelementptr inbounds i8, ptr %0, i64 32
  %33 = load i8, ptr %32, align 8
  %34 = zext i8 %33 to i32
  store i32 %34, ptr %23, align 8
  %35 = add nsw i32 %29, -1
  store i32 %35, ptr %28, align 8
  br label %_ZN14VrmlTranslator7Scanner6NextChEv.exit

36:                                               ; preds = %20
  %37 = getelementptr inbounds i8, ptr %0, i64 152
  %38 = load ptr, ptr %37, align 8
  %39 = load ptr, ptr %38, align 8
  %40 = getelementptr inbounds i8, ptr %39, i64 48
  %41 = load ptr, ptr %40, align 8
  %42 = tail call noundef i32 %41(ptr noundef nonnull align 8 dereferenceable(49) %38)
  %43 = getelementptr inbounds i8, ptr %0, i64 132
  store i32 %42, ptr %43, align 4
  %44 = load ptr, ptr %37, align 8
  %45 = load ptr, ptr %44, align 8
  %46 = getelementptr inbounds i8, ptr %45, i64 24
  %47 = load ptr, ptr %46, align 8
  %48 = tail call noundef i32 %47(ptr noundef nonnull align 8 dereferenceable(49) %44)
  store i32 %48, ptr %23, align 8
  %49 = getelementptr inbounds i8, ptr %0, i64 140
  %50 = load i32, ptr %49, align 4
  %51 = add nsw i32 %50, 1
  store i32 %51, ptr %49, align 4
  %52 = icmp eq i32 %48, 13
  br i1 %52, label %53, label %63

53:                                               ; preds = %36
  %54 = load ptr, ptr %37, align 8
  %55 = load ptr, ptr %54, align 8
  %56 = getelementptr inbounds i8, ptr %55, i64 32
  %57 = load ptr, ptr %56, align 8
  %58 = tail call noundef i32 %57(ptr noundef nonnull align 8 dereferenceable(49) %54)
  %.not.i = icmp eq i32 %58, 10
  br i1 %.not.i, label %._crit_edge.i, label %59

._crit_edge.i:                                    ; preds = %53
  %.pre.i = load i32, ptr %23, align 8
  br label %63

59:                                               ; preds = %53
  %60 = getelementptr inbounds i8, ptr %0, i64 32
  %61 = load i8, ptr %60, align 8
  %62 = zext i8 %61 to i32
  store i32 %62, ptr %23, align 8
  br label %63

63:                                               ; preds = %59, %._crit_edge.i, %36
  %64 = phi i32 [ %.pre.i, %._crit_edge.i ], [ %62, %59 ], [ %48, %36 ]
  %65 = getelementptr inbounds i8, ptr %0, i64 32
  %66 = load i8, ptr %65, align 8
  %67 = zext i8 %66 to i32
  %68 = icmp eq i32 %64, %67
  br i1 %68, label %69, label %_ZN14VrmlTranslator7Scanner6NextChEv.exit

69:                                               ; preds = %63
  %70 = getelementptr inbounds i8, ptr %0, i64 136
  %71 = load i32, ptr %70, align 8
  %72 = add nsw i32 %71, 1
  store i32 %72, ptr %70, align 8
  store i32 0, ptr %49, align 4
  br label %_ZN14VrmlTranslator7Scanner6NextChEv.exit

_ZN14VrmlTranslator7Scanner6NextChEv.exit:        ; preds = %31, %63, %69
  ret void
}